(dp1
S'best_allocation'
p2
(lp3
(dp4
S'engage_lowquality'
p5
cnumpy.core.multiarray
scalar
p6
(cnumpy
dtype
p7
(S'f8'
I0
I1
tRp8
(I3
S'<'
NNNI-1
I-1
I0
tbS'\xa6\x08&\xe2?\x93\xe7?'
tRp9
sS'xpert'
p10
g6
(g8
S'\x86T\xd7;\x80\xd9\xd0?'
tRp11
sasS'indicator_to_minimise'
p12
S'incidence'
p13
sS'annual_envelope'
p14
(lp15
F10000000
asS'mortality'
p16
(lp17
g6
(g8
S'p\x19\xc6\xce\x1e\xb1/@'
tRp18
asg13
(lp19
g6
(g8
S'\xb1\xc9_\x0cv\x9eh@'
tRp20
as.